target datalayout = "e-m:e-p270:32:32-p271:32:32-p272:64:64-i64:64-i128:128-f80:128-n8:16:32:64-S128"
target triple = "x86_64-pc-linux-gnu"

%struct.Agobj_s = type { %struct.Agtag_s, ptr }
%struct.Agtag_s = type { i32, i64 }
%struct.Agedge_s = type { %struct.Agobj_s, %struct.dtlink_s_, %struct.dtlink_s_, ptr }
%struct.dtlink_s_ = type { ptr, %union.anon }
%union.anon = type { ptr }
%struct.Agrec_s = type { ptr, ptr }
%struct.pointf_s = type { double, double }
%struct.Agedgeinfo_t = type { %struct.Agrec_s, ptr, %struct.port, %struct.port, ptr, ptr, ptr, ptr, i8, i8, i8, i8, i8, ptr, ptr, double, double, %struct.Ppoly_t, i8, i8, i16, i32, i32, i32, i16, i32, ptr }
%struct.port = type { %struct.pointf_s, double, ptr, i8, i8, i8, i8, i8, i8, ptr }
%struct.Ppoly_t = type { ptr, i64 }

; Function Attrs: nounwind uwtable
define zeroext i1 @mergeable(ptr noundef %0, ptr noundef %1) #0 {
  %3 = alloca ptr, align 8
  %4 = alloca ptr, align 8
  store ptr %0, ptr %3, align 8, !tbaa !8
  store ptr %1, ptr %4, align 8, !tbaa !8
  %5 = load ptr, ptr %3, align 8, !tbaa !8
  %6 = icmp ne ptr %5, null
  br i1 %6, label %7, label %87

7:                                                ; preds = %2
  %8 = load ptr, ptr %4, align 8, !tbaa !8
  %9 = icmp ne ptr %8, null
  br i1 %9, label %10, label %87

10:                                               ; preds = %7
  %11 = load ptr, ptr %3, align 8, !tbaa !8
  %12 = getelementptr inbounds nuw %struct.Agobj_s, ptr %11, i32 0, i32 0
  %13 = load i32, ptr %12, align 8
  %14 = and i32 %13, 3
  %15 = icmp eq i32 %14, 3
  br i1 %15, label %16, label %18

16:                                               ; preds = %10
  %17 = load ptr, ptr %3, align 8, !tbaa !8
  br label %21

18:                                               ; preds = %10
  %19 = load ptr, ptr %3, align 8, !tbaa !8
  %20 = getelementptr inbounds %struct.Agedge_s, ptr %19, i64 1
  br label %21

21:                                               ; preds = %18, %16
  %22 = phi ptr [ %17, %16 ], [ %20, %18 ]
  %23 = getelementptr inbounds nuw %struct.Agedge_s, ptr %22, i32 0, i32 3
  %24 = load ptr, ptr %23, align 8, !tbaa !12
  %25 = load ptr, ptr %4, align 8, !tbaa !8
  %26 = getelementptr inbounds nuw %struct.Agobj_s, ptr %25, i32 0, i32 0
  %27 = load i32, ptr %26, align 8
  %28 = and i32 %27, 3
  %29 = icmp eq i32 %28, 3
  br i1 %29, label %30, label %32

30:                                               ; preds = %21
  %31 = load ptr, ptr %4, align 8, !tbaa !8
  br label %35

32:                                               ; preds = %21
  %33 = load ptr, ptr %4, align 8, !tbaa !8
  %34 = getelementptr inbounds %struct.Agedge_s, ptr %33, i64 1
  br label %35

35:                                               ; preds = %32, %30
  %36 = phi ptr [ %31, %30 ], [ %34, %32 ]
  %37 = getelementptr inbounds nuw %struct.Agedge_s, ptr %36, i32 0, i32 3
  %38 = load ptr, ptr %37, align 8, !tbaa !12
  %39 = icmp eq ptr %24, %38
  br i1 %39, label %40, label %87

40:                                               ; preds = %35
  %41 = load ptr, ptr %3, align 8, !tbaa !8
  %42 = getelementptr inbounds nuw %struct.Agobj_s, ptr %41, i32 0, i32 0
  %43 = load i32, ptr %42, align 8
  %44 = and i32 %43, 3
  %45 = icmp eq i32 %44, 2
  br i1 %45, label %46, label %48

46:                                               ; preds = %40
  %47 = load ptr, ptr %3, align 8, !tbaa !8
  br label %51

48:                                               ; preds = %40
  %49 = load ptr, ptr %3, align 8, !tbaa !8
  %50 = getelementptr inbounds %struct.Agedge_s, ptr %49, i64 -1
  br label %51

51:                                               ; preds = %48, %46
  %52 = phi ptr [ %47, %46 ], [ %50, %48 ]
  %53 = getelementptr inbounds nuw %struct.Agedge_s, ptr %52, i32 0, i32 3
  %54 = load ptr, ptr %53, align 8, !tbaa !12
  %55 = load ptr, ptr %4, align 8, !tbaa !8
  %56 = getelementptr inbounds nuw %struct.Agobj_s, ptr %55, i32 0, i32 0
  %57 = load i32, ptr %56, align 8
  %58 = and i32 %57, 3
  %59 = icmp eq i32 %58, 2
  br i1 %59, label %60, label %62

60:                                               ; preds = %51
  %61 = load ptr, ptr %4, align 8, !tbaa !8
  br label %65

62:                                               ; preds = %51
  %63 = load ptr, ptr %4, align 8, !tbaa !8
  %64 = getelementptr inbounds %struct.Agedge_s, ptr %63, i64 -1
  br label %65

65:                                               ; preds = %62, %60
  %66 = phi ptr [ %61, %60 ], [ %64, %62 ]
  %67 = getelementptr inbounds nuw %struct.Agedge_s, ptr %66, i32 0, i32 3
  %68 = load ptr, ptr %67, align 8, !tbaa !12
  %69 = icmp eq ptr %54, %68
  br i1 %69, label %70, label %87

70:                                               ; preds = %65
  %71 = load ptr, ptr %3, align 8, !tbaa !8
  %72 = getelementptr inbounds nuw %struct.Agobj_s, ptr %71, i32 0, i32 1
  %73 = load ptr, ptr %72, align 8, !tbaa !22
  %74 = getelementptr inbounds nuw %struct.Agedgeinfo_t, ptr %73, i32 0, i32 4
  %75 = load ptr, ptr %74, align 8, !tbaa !64
  %76 = load ptr, ptr %4, align 8, !tbaa !8
  %77 = getelementptr inbounds nuw %struct.Agobj_s, ptr %76, i32 0, i32 1
  %78 = load ptr, ptr %77, align 8, !tbaa !22
  %79 = getelementptr inbounds nuw %struct.Agedgeinfo_t, ptr %78, i32 0, i32 4
  %80 = load ptr, ptr %79, align 8, !tbaa !64
  %81 = icmp eq ptr %75, %80
  br i1 %81, label %82, label %87

82:                                               ; preds = %70
  %83 = load ptr, ptr %3, align 8, !tbaa !8
  %84 = load ptr, ptr %4, align 8, !tbaa !8
  %85 = call i32 @ports_eq(ptr noundef %83, ptr noundef %84)
  %86 = icmp ne i32 %85, 0
  br label %87

87:                                               ; preds = %82, %70, %65, %35, %7, %2
  %88 = phi i1 [ false, %70 ], [ false, %65 ], [ false, %35 ], [ false, %7 ], [ false, %2 ], [ %86, %82 ]
  ret i1 %88
}