; Function Attrs: nounwind uwtable
define zeroext i1 @mergeable(ptr noundef %0, ptr noundef %1) local_unnamed_addr #1 {
  %3 = icmp ne ptr %0, null
  %4 = icmp ne ptr %1, null
  %or.cond = and i1 %3, %4
  br i1 %or.cond, label %5, label %42

5:                                                ; preds = %2
  %6 = load i32, ptr %0, align 8
  %7 = and i32 %6, 3
  %8 = icmp eq i32 %7, 3
  %.idx = select i1 %8, i64 0, i64 64
  %9 = getelementptr inbounds nuw i8, ptr %0, i64 %.idx
  %10 = getelementptr inbounds nuw i8, ptr %9, i64 56
  %11 = load ptr, ptr %10, align 8, !tbaa !3
  %12 = load i32, ptr %1, align 8
  %13 = and i32 %12, 3
  %14 = icmp eq i32 %13, 3
  %.idx20 = select i1 %14, i64 0, i64 64
  %15 = getelementptr inbounds nuw i8, ptr %1, i64 %.idx20
  %16 = getelementptr inbounds nuw i8, ptr %15, i64 56
  %17 = load ptr, ptr %16, align 8, !tbaa !3
  %18 = icmp eq ptr %11, %17
  br i1 %18, label %19, label %42

19:                                               ; preds = %5
  %20 = icmp eq i32 %7, 2
  %.idx21 = select i1 %20, i64 0, i64 -64
  %21 = getelementptr inbounds i8, ptr %0, i64 %.idx21
  %22 = getelementptr inbounds nuw i8, ptr %21, i64 56
  %23 = load ptr, ptr %22, align 8, !tbaa !3
  %24 = icmp eq i32 %13, 2
  %.idx22 = select i1 %24, i64 0, i64 -64
  %25 = getelementptr inbounds i8, ptr %1, i64 %.idx22
  %26 = getelementptr inbounds nuw i8, ptr %25, i64 56
  %27 = load ptr, ptr %26, align 8, !tbaa !3
  %28 = icmp eq ptr %23, %27
  br i1 %28, label %29, label %42

29:                                               ; preds = %19
  %30 = getelementptr inbounds nuw i8, ptr %0, i64 16
  %31 = load ptr, ptr %30, align 8, !tbaa !16
  %32 = getelementptr inbounds nuw i8, ptr %31, i64 120
  %33 = load ptr, ptr %32, align 8, !tbaa !58
  %34 = getelementptr inbounds nuw i8, ptr %1, i64 16
  %35 = load ptr, ptr %34, align 8, !tbaa !16
  %36 = getelementptr inbounds nuw i8, ptr %35, i64 120
  %37 = load ptr, ptr %36, align 8, !tbaa !58
  %38 = icmp eq ptr %33, %37
  br i1 %38, label %39, label %42

39:                                               ; preds = %29
  %40 = tail call i32 @ports_eq(ptr noundef nonnull %0, ptr noundef nonnull %1) #9
  %41 = icmp ne i32 %40, 0
  br label %42

42:                                               ; preds = %39, %29, %19, %5, %2
  %43 = phi i1 [ false, %29 ], [ false, %19 ], [ false, %5 ], [ false, %2 ], [ %41, %39 ]
  ret i1 %43
}